target datalayout = "e-m:e-p270:32:32-p271:32:32-p272:64:64-i64:64-i128:128-f80:128-n8:16:32:64-S128"
target triple = "x86_64-pc-linux-gnu"

%"class.icu_77::UObject" = type { ptr }
%"class.icu_77::Calendar" = type <{ %"class.icu_77::UObject", [24 x i32], [24 x i8], i8, [7 x i8], double, ptr, i8, i16, i8, i32, i32, i32, i8, i8, i16, [4 x i8], ptr, ptr }>

; Function Attrs: mustprogress nounwind uwtable
define noundef signext i8 @_ZNK6icu_778Calendar5isSetE19UCalendarDateFields(ptr noundef nonnull align 8 dereferenceable(192) %0, i32 noundef %1) #0 align 2 {
  %3 = alloca i8, align 1
  %4 = alloca ptr, align 8
  %5 = alloca i32, align 4
  store ptr %0, ptr %4, align 8, !tbaa !37
  store i32 %1, ptr %5, align 4, !tbaa !106
  %6 = load ptr, ptr %4, align 8
  %7 = load i32, ptr %5, align 4, !tbaa !106
  %8 = icmp slt i32 %7, 0
  br i1 %8, label %12, label %9

9:                                                ; preds = %2
  %10 = load i32, ptr %5, align 4, !tbaa !106
  %11 = icmp sge i32 %10, 24
  br i1 %11, label %12, label %13

12:                                               ; preds = %9, %2
  store i8 0, ptr %3, align 1
  br label %30

13:                                               ; preds = %9
  %14 = getelementptr inbounds nuw %"class.icu_77::Calendar", ptr %6, i32 0, i32 7
  %15 = load i8, ptr %14, align 8
  %16 = lshr i8 %15, 3
  %17 = and i8 %16, 1
  %18 = trunc i8 %17 to i1
  br i1 %18, label %27, label %19

19:                                               ; preds = %13
  %20 = getelementptr inbounds nuw %"class.icu_77::Calendar", ptr %6, i32 0, i32 2
  %21 = load i32, ptr %5, align 4, !tbaa !106
  %22 = zext i32 %21 to i64
  %23 = getelementptr inbounds nuw [24 x i8], ptr %20, i64 0, i64 %22
  %24 = load i8, ptr %23, align 1, !tbaa !70
  %25 = sext i8 %24 to i32
  %26 = icmp ne i32 %25, 0
  br label %27

27:                                               ; preds = %19, %13
  %28 = phi i1 [ true, %13 ], [ %26, %19 ]
  %29 = zext i1 %28 to i8
  store i8 %29, ptr %3, align 1
  br label %30

30:                                               ; preds = %27, %12
  %31 = load i8, ptr %3, align 1
  ret i8 %31
}