; Function Attrs: mustprogress nofree norecurse nosync nounwind willreturn memory(argmem: read) uwtable
define noundef signext range(i8 0, 2) i8 @_ZNK6icu_778Calendar5isSetE19UCalendarDateFields(ptr noundef nonnull readonly align 8 captures(none) dereferenceable(192) %0, i32 noundef %1) local_unnamed_addr #18 align 2 {
  %or.cond = icmp ugt i32 %1, 23
  br i1 %or.cond, label %14, label %3

3:                                                ; preds = %2
  %4 = getelementptr inbounds nuw i8, ptr %0, i64 152
  %5 = load i8, ptr %4, align 8
  %6 = and i8 %5, 8
  %.not = icmp eq i8 %6, 0
  br i1 %.not, label %7, label %14

7:                                                ; preds = %3
  %8 = getelementptr inbounds nuw i8, ptr %0, i64 104
  %9 = zext nneg i32 %1 to i64
  %10 = getelementptr inbounds nuw [24 x i8], ptr %8, i64 0, i64 %9
  %11 = load i8, ptr %10, align 1, !tbaa !47
  %12 = icmp ne i8 %11, 0
  %13 = zext i1 %12 to i8
  br label %14

14:                                               ; preds = %3, %7, %2
  %.0 = phi i8 [ 0, %2 ], [ 1, %3 ], [ %13, %7 ]
  ret i8 %.0
}